; Function Attrs: nounwind uwtable
define dso_local ptr @strip_namespace(ptr noundef readonly %0) local_unnamed_addr #0 {
  %2 = tail call ptr @get_git_namespace()
  br label %3

3:                                                ; preds = %5, %1
  %.07.i = phi ptr [ %0, %1 ], [ %6, %5 ]
  %.06.i = phi ptr [ %2, %1 ], [ %8, %5 ]
  %4 = load i8, ptr %.06.i, align 1, !tbaa !40
  %.not.i = icmp eq i8 %4, 0
  br i1 %.not.i, label %skip_prefix.exit, label %5

5:                                                ; preds = %3
  %6 = getelementptr inbounds nuw i8, ptr %.07.i, i64 1
  %7 = load i8, ptr %.07.i, align 1, !tbaa !40
  %8 = getelementptr inbounds nuw i8, ptr %.06.i, i64 1
  %9 = icmp eq i8 %7, %4
  br i1 %9, label %3, label %skip_prefix.exit, !llvm.loop !49

skip_prefix.exit:                                 ; preds = %3, %5
  %.0 = phi ptr [ null, %5 ], [ %.07.i, %3 ]
  ret ptr %.0
}